target datalayout = "e-m:e-p270:32:32-p271:32:32-p272:64:64-i64:64-i128:128-f80:128-n8:16:32:64-S128"
target triple = "x86_64-pc-linux-gnu"

; Function Attrs: null_pointer_is_valid sspstrong uwtable
define internal i32 @dissect_hdfsdata(ptr noundef %0, ptr noundef %1, ptr noundef %2, ptr noundef %3) #0 {
  %5 = alloca ptr, align 8
  %6 = alloca ptr, align 8
  %7 = alloca ptr, align 8
  %8 = alloca ptr, align 8
  %9 = alloca i32, align 4
  %10 = alloca i8, align 1
  %11 = alloca i8, align 1
  %12 = alloca i8, align 1
  store ptr %0, ptr %5, align 8
  store ptr %1, ptr %6, align 8
  store ptr %2, ptr %7, align 8
  store ptr %3, ptr %8, align 8
  call void @llvm.lifetime.start.p0(i64 4, ptr %9) #4
  store i32 0, ptr %9, align 4
  call void @llvm.lifetime.start.p0(i64 1, ptr %10) #4
  store i8 0, ptr %10, align 1
  call void @llvm.lifetime.start.p0(i64 1, ptr %11) #4
  store i8 0, ptr %11, align 1
  call void @llvm.lifetime.start.p0(i64 1, ptr %12) #4
  %13 = load ptr, ptr %5, align 8
  %14 = call i32 @tvb_reported_length(ptr noundef %13)
  %15 = icmp eq i32 %14, 1
  br i1 %15, label %27, label %16

16:                                               ; preds = %4
  %17 = load ptr, ptr %5, align 8
  %18 = call i32 @tvb_reported_length(ptr noundef %17)
  %19 = icmp eq i32 %18, 2
  br i1 %19, label %20, label %25

20:                                               ; preds = %16
  %21 = load ptr, ptr %5, align 8
  %22 = call zeroext i16 @tvb_get_ntohs(ptr noundef %21, i32 noundef 0)
  %23 = zext i16 %22 to i32
  %24 = icmp eq i32 %23, 6
  br label %25

25:                                               ; preds = %20, %16
  %26 = phi i1 [ false, %16 ], [ %24, %20 ]
  br label %27

27:                                               ; preds = %25, %4
  %28 = phi i1 [ true, %4 ], [ %26, %25 ]
  %29 = zext i1 %28 to i8
  store i8 %29, ptr %12, align 1
  %30 = load ptr, ptr %5, align 8
  %31 = call i32 @tvb_reported_length(ptr noundef %30)
  %32 = icmp uge i32 %31, 3
  br i1 %32, label %33, label %36

33:                                               ; preds = %27
  %34 = load ptr, ptr %5, align 8
  %35 = call zeroext i8 @tvb_get_uint8(ptr noundef %34, i32 noundef 2)
  store i8 %35, ptr %11, align 1
  br label %36

36:                                               ; preds = %33, %27
  %37 = load i8, ptr %12, align 1, !range !6, !noundef !7
  %38 = trunc i8 %37 to i1
  br i1 %38, label %72, label %39

39:                                               ; preds = %36
  %40 = load ptr, ptr %5, align 8
  %41 = call i32 @tvb_reported_length(ptr noundef %40)
  %42 = icmp ne i32 %41, 4
  br i1 %42, label %43, label %72

43:                                               ; preds = %39
  %44 = load ptr, ptr %5, align 8
  %45 = call i32 @tvb_reported_length(ptr noundef %44)
  %46 = icmp uge i32 %45, 36
  br i1 %46, label %47, label %51

47:                                               ; preds = %43
  %48 = load i8, ptr %11, align 1
  %49 = zext i8 %48 to i32
  %50 = icmp eq i32 %49, 81
  br i1 %50, label %72, label %51

51:                                               ; preds = %47, %43
  %52 = load ptr, ptr %5, align 8
  %53 = call i32 @tvb_reported_length(ptr noundef %52)
  %54 = icmp uge i32 %53, 35
  br i1 %54, label %55, label %59

55:                                               ; preds = %51
  %56 = load i8, ptr %11, align 1
  %57 = zext i8 %56 to i32
  %58 = icmp eq i32 %57, 80
  br i1 %58, label %72, label %59

59:                                               ; preds = %55, %51
  %60 = load ptr, ptr %5, align 8
  %61 = call i32 @tvb_reported_length(ptr noundef %60)
  %62 = icmp eq i32 %61, 8
  br i1 %62, label %63, label %71

63:                                               ; preds = %59
  %64 = load ptr, ptr %5, align 8
  %65 = call i32 @tvb_get_ntohl(ptr noundef %64, i32 noundef 0)
  %66 = icmp ne i32 %65, 0
  br i1 %66, label %71, label %67

67:                                               ; preds = %63
  %68 = load ptr, ptr %5, align 8
  %69 = call i32 @tvb_get_ntohl(ptr noundef %68, i32 noundef 4)
  %70 = icmp ne i32 %69, 0
  br i1 %70, label %71, label %72

71:                                               ; preds = %67, %63, %59
  store i8 1, ptr %10, align 1
  br label %72

72:                                               ; preds = %71, %67, %55, %47, %39, %36
  %73 = load i8, ptr %12, align 1, !range !6, !noundef !7
  %74 = trunc i8 %73 to i1
  br i1 %74, label %79, label %75

75:                                               ; preds = %72
  %76 = load ptr, ptr %5, align 8
  %77 = call i32 @tvb_reported_length(ptr noundef %76)
  %78 = icmp eq i32 %77, 8
  br i1 %78, label %79, label %82

79:                                               ; preds = %75, %72
  %80 = load ptr, ptr %5, align 8
  %81 = call i32 @tvb_reported_length(ptr noundef %80)
  store i32 %81, ptr %9, align 4
  br label %114

82:                                               ; preds = %75
  %83 = load ptr, ptr %5, align 8
  %84 = call i32 @tvb_reported_length(ptr noundef %83)
  %85 = icmp eq i32 %84, 15
  br i1 %85, label %102, label %86

86:                                               ; preds = %82
  %87 = load ptr, ptr %5, align 8
  %88 = call i32 @tvb_reported_length(ptr noundef %87)
  %89 = icmp uge i32 %88, 36
  br i1 %89, label %90, label %103

90:                                               ; preds = %86
  %91 = load i8, ptr %11, align 1
  %92 = zext i8 %91 to i32
  %93 = icmp eq i32 %92, 81
  br i1 %93, label %94, label %103

94:                                               ; preds = %90
  %95 = load ptr, ptr %5, align 8
  %96 = call i32 @tvb_reported_length(ptr noundef %95)
  %97 = icmp eq i32 %96, 2
  br i1 %97, label %98, label %102

98:                                               ; preds = %94
  %99 = load ptr, ptr %5, align 8
  %100 = call zeroext i16 @tvb_get_ntohs(ptr noundef %99, i32 noundef 0)
  %101 = icmp ne i16 %100, 0
  br i1 %101, label %102, label %103

102:                                              ; preds = %98, %94, %82
  store i32 19, ptr %9, align 4
  br label %113

103:                                              ; preds = %98, %90, %86
  %104 = load ptr, ptr %5, align 8
  %105 = call i32 @tvb_reported_length(ptr noundef %104)
  %106 = icmp uge i32 %105, 35
  br i1 %106, label %107, label %112

107:                                              ; preds = %103
  %108 = load i8, ptr %11, align 1
  %109 = zext i8 %108 to i32
  %110 = icmp eq i32 %109, 80
  br i1 %110, label %111, label %112

111:                                              ; preds = %107
  store i32 7, ptr %9, align 4
  br label %112

112:                                              ; preds = %111, %107, %103
  br label %113

113:                                              ; preds = %112, %102
  br label %114

114:                                              ; preds = %113, %79
  %115 = load ptr, ptr %5, align 8
  %116 = load ptr, ptr %6, align 8
  %117 = load ptr, ptr %7, align 8
  %118 = load i8, ptr %10, align 1, !range !6, !noundef !7
  %119 = trunc i8 %118 to i1
  %120 = load i32, ptr %9, align 4
  %121 = load ptr, ptr %8, align 8
  call void @tcp_dissect_pdus(ptr noundef %115, ptr noundef %116, ptr noundef %117, i1 noundef zeroext %119, i32 noundef %120, ptr noundef @get_hdfsdata_message_len, ptr noundef @dissect_hdfsdata_message, ptr noundef %121)
  %122 = load ptr, ptr %5, align 8
  %123 = call i32 @tvb_captured_length(ptr noundef %122)
  call void @llvm.lifetime.end.p0(i64 1, ptr %12) #4
  call void @llvm.lifetime.end.p0(i64 1, ptr %11) #4
  call void @llvm.lifetime.end.p0(i64 1, ptr %10) #4
  call void @llvm.lifetime.end.p0(i64 4, ptr %9) #4
  ret i32 %123
}