; Function Attrs: null_pointer_is_valid sspstrong uwtable
define internal i32 @dissect_hdfsdata(ptr noundef %0, ptr noundef %1, ptr noundef %2, ptr noundef %3) #0 {
  %5 = tail call i32 @tvb_reported_length(ptr noundef %0)
  %6 = icmp eq i32 %5, 1
  br i1 %6, label %13, label %7

7:                                                ; preds = %4
  %8 = tail call i32 @tvb_reported_length(ptr noundef %0)
  %9 = icmp eq i32 %8, 2
  br i1 %9, label %10, label %13

10:                                               ; preds = %7
  %11 = tail call zeroext i16 @tvb_get_ntohs(ptr noundef %0, i32 noundef 0)
  %12 = icmp eq i16 %11, 6
  br label %13

13:                                               ; preds = %7, %10, %4
  %14 = phi i1 [ true, %4 ], [ false, %7 ], [ %12, %10 ]
  %15 = tail call i32 @tvb_reported_length(ptr noundef %0)
  %16 = icmp ugt i32 %15, 2
  br i1 %16, label %17, label %20

17:                                               ; preds = %13
  %18 = tail call zeroext i8 @tvb_get_uint8(ptr noundef %0, i32 noundef 2)
  %19 = zext i8 %18 to i32
  br label %20

20:                                               ; preds = %17, %13
  %.041 = phi i32 [ %19, %17 ], [ 0, %13 ]
  br i1 %14, label %42, label %21

21:                                               ; preds = %20
  %22 = tail call i32 @tvb_reported_length(ptr noundef %0)
  %.not = icmp eq i32 %22, 4
  br i1 %.not, label %39, label %23

23:                                               ; preds = %21
  %24 = tail call i32 @tvb_reported_length(ptr noundef %0)
  %25 = icmp ugt i32 %24, 35
  %26 = icmp eq i32 %.041, 81
  %or.cond = select i1 %25, i1 %26, i1 false
  br i1 %or.cond, label %39, label %27

27:                                               ; preds = %23
  %28 = tail call i32 @tvb_reported_length(ptr noundef %0)
  %29 = icmp ugt i32 %28, 34
  %30 = icmp eq i32 %.041, 80
  %or.cond5 = select i1 %29, i1 %30, i1 false
  br i1 %or.cond5, label %39, label %31

31:                                               ; preds = %27
  %32 = tail call i32 @tvb_reported_length(ptr noundef %0)
  %33 = icmp eq i32 %32, 8
  br i1 %33, label %34, label %38

34:                                               ; preds = %31
  %35 = tail call i32 @tvb_get_ntohl(ptr noundef %0, i32 noundef 0)
  %.not43 = icmp eq i32 %35, 0
  br i1 %.not43, label %36, label %38

36:                                               ; preds = %34
  %37 = tail call i32 @tvb_get_ntohl(ptr noundef %0, i32 noundef 4)
  %.not44 = icmp eq i32 %37, 0
  br i1 %.not44, label %39, label %38

38:                                               ; preds = %36, %34, %31
  br label %39

39:                                               ; preds = %27, %23, %38, %36, %21
  %.042.ph = phi i1 [ false, %21 ], [ false, %36 ], [ true, %38 ], [ false, %27 ], [ false, %23 ]
  %40 = tail call i32 @tvb_reported_length(ptr noundef %0)
  %41 = icmp eq i32 %40, 8
  br i1 %41, label %42, label %44

42:                                               ; preds = %20, %39
  %.04248 = phi i1 [ %.042.ph, %39 ], [ false, %20 ]
  %43 = tail call i32 @tvb_reported_length(ptr noundef %0)
  br label %60

44:                                               ; preds = %39
  %45 = tail call i32 @tvb_reported_length(ptr noundef %0)
  %46 = icmp eq i32 %45, 15
  br i1 %46, label %60, label %47

47:                                               ; preds = %44
  %48 = tail call i32 @tvb_reported_length(ptr noundef %0)
  %49 = icmp ugt i32 %48, 35
  %50 = icmp eq i32 %.041, 81
  %or.cond8 = select i1 %49, i1 %50, i1 false
  br i1 %or.cond8, label %51, label %56

51:                                               ; preds = %47
  %52 = tail call i32 @tvb_reported_length(ptr noundef %0)
  %53 = icmp eq i32 %52, 2
  br i1 %53, label %54, label %60

54:                                               ; preds = %51
  %55 = tail call zeroext i16 @tvb_get_ntohs(ptr noundef %0, i32 noundef 0)
  %.not45 = icmp eq i16 %55, 0
  br i1 %.not45, label %56, label %60

56:                                               ; preds = %54, %47
  %57 = tail call i32 @tvb_reported_length(ptr noundef %0)
  %58 = icmp ugt i32 %57, 34
  %59 = icmp eq i32 %.041, 80
  %or.cond11 = select i1 %58, i1 %59, i1 false
  %spec.select = select i1 %or.cond11, i32 7, i32 0
  br label %60

60:                                               ; preds = %56, %44, %51, %54, %42
  %.04247 = phi i1 [ %.04248, %42 ], [ %.042.ph, %54 ], [ %.042.ph, %51 ], [ %.042.ph, %44 ], [ %.042.ph, %56 ]
  %.0 = phi i32 [ %43, %42 ], [ 19, %54 ], [ 19, %51 ], [ 19, %44 ], [ %spec.select, %56 ]
  tail call void @tcp_dissect_pdus(ptr noundef %0, ptr noundef %1, ptr noundef %2, i1 noundef zeroext %.04247, i32 noundef %.0, ptr noundef nonnull @get_hdfsdata_message_len, ptr noundef nonnull @dissect_hdfsdata_message, ptr noundef %3)
  %61 = tail call i32 @tvb_captured_length(ptr noundef %0)
  ret i32 %61
}